target datalayout = "e-m:e-p270:32:32-p271:32:32-p272:64:64-i64:64-i128:128-f80:128-n8:16:32:64-S128"
target triple = "x86_64-pc-linux-gnu"

%struct.ret_data_info = type { i16, i32, ptr, ptr }

; Function Attrs: nounwind uwtable
define dso_local void @destroy_data_info(ptr noundef %0) #0 {
  %2 = alloca ptr, align 8
  %3 = alloca ptr, align 8
  store ptr %0, ptr %2, align 8
  call void @llvm.lifetime.start.p0(i64 8, ptr %3) #8
  %4 = load ptr, ptr %2, align 8
  store ptr %4, ptr %3, align 8
  %5 = load ptr, ptr %3, align 8
  %6 = icmp ne ptr %5, null
  br i1 %6, label %7, label %18

7:                                                ; preds = %1
  %8 = load ptr, ptr %3, align 8
  %9 = getelementptr inbounds nuw %struct.ret_data_info, ptr %8, i32 0, i32 0
  %10 = load i16, ptr %9, align 8
  %11 = zext i16 %10 to i32
  %12 = load ptr, ptr %3, align 8
  %13 = getelementptr inbounds nuw %struct.ret_data_info, ptr %12, i32 0, i32 3
  %14 = load ptr, ptr %13, align 8
  %15 = call i32 @slurm_free_msg_data(i32 noundef %11, ptr noundef %14)
  %16 = load ptr, ptr %3, align 8
  %17 = getelementptr inbounds nuw %struct.ret_data_info, ptr %16, i32 0, i32 2
  call void @slurm_xfree(ptr noundef %17)
  call void @slurm_xfree(ptr noundef %3)
  br label %18

18:                                               ; preds = %7, %1
  call void @llvm.lifetime.end.p0(i64 8, ptr %3) #8
  ret void
}