; Function Attrs: nounwind uwtable
define dso_local void @destroy_data_info(ptr noundef %0) #0 {
  %2 = alloca ptr, align 8
  call void @llvm.lifetime.start.p0(i64 8, ptr nonnull %2) #10
  store ptr %0, ptr %2, align 8
  %.not = icmp eq ptr %0, null
  br i1 %.not, label %10, label %3

3:                                                ; preds = %1
  %4 = load i16, ptr %0, align 8
  %5 = zext i16 %4 to i32
  %6 = getelementptr inbounds nuw i8, ptr %0, i64 16
  %7 = load ptr, ptr %6, align 8
  %8 = tail call i32 @slurm_free_msg_data(i32 noundef %5, ptr noundef %7) #10
  %9 = getelementptr inbounds nuw i8, ptr %0, i64 8
  tail call void @slurm_xfree(ptr noundef nonnull %9) #10
  call void @slurm_xfree(ptr noundef nonnull %2) #10
  br label %10

10:                                               ; preds = %3, %1
  call void @llvm.lifetime.end.p0(i64 8, ptr nonnull %2) #10
  ret void
}